; Function Attrs: mustprogress nounwind uwtable
define void @_ZN6google8protobuf5ValueD2Ev(ptr noundef nonnull align 8 dereferenceable(32) %this) unnamed_addr #6 align 2 personality ptr @__gxx_personality_v0 {
entry:
  %_internal_metadata_ = getelementptr inbounds i8, ptr %this, i64 8
  %0 = load i64, ptr %_internal_metadata_, align 8
  %and.i.i = and i64 %0, 1
  %tobool.i.not.i = icmp eq i64 %and.i.i, 0
  br i1 %tobool.i.not.i, label %invoke.cont, label %if.then.i

if.then.i:                                        ; preds = %entry
  invoke void @_ZN6google8protobuf8internal16InternalMetadata21DeleteOutOfLineHelperINS0_15UnknownFieldSetEEEvv(ptr noundef nonnull align 8 dereferenceable(8) %_internal_metadata_)
          to label %invoke.cont unwind label %terminate.lpad

invoke.cont:                                      ; preds = %entry, %if.then.i
  %_oneof_case_.i.i.i = getelementptr inbounds i8, ptr %this, i64 28
  %1 = load i32, ptr %_oneof_case_.i.i.i, align 4
  %cmp.i.not.i = icmp eq i32 %1, 0
  br i1 %cmp.i.not.i, label %invoke.cont2, label %if.then.i1

if.then.i1:                                       ; preds = %invoke.cont
  invoke void @_ZN6google8protobuf5Value10clear_kindEv(ptr noundef nonnull align 8 dereferenceable(32) %this)
          to label %invoke.cont2 unwind label %terminate.lpad

invoke.cont2:                                     ; preds = %invoke.cont, %if.then.i1
  ret void

terminate.lpad:                                   ; preds = %if.then.i1, %if.then.i
  %2 = landingpad { ptr, i32 }
          catch ptr null
  %3 = extractvalue { ptr, i32 } %2, 0
  tail call void @__clang_call_terminate(ptr %3) #24
  unreachable
}